target datalayout = "e-m:e-p270:32:32-p271:32:32-p272:64:64-i64:64-i128:128-f80:128-n8:16:32:64-S128"
target triple = "x86_64-pc-linux-gnu"

%"class.open3d::core::nns::NearestNeighborSearch" = type { %"class.std::unique_ptr", %"class.std::unique_ptr.2", %"class.std::unique_ptr.10", %"class.open3d::core::Tensor", %"class.open3d::core::Dtype" }
%"class.std::unique_ptr" = type { %"struct.std::__uniq_ptr_data" }
%"struct.std::__uniq_ptr_data" = type { %"class.std::__uniq_ptr_impl" }
%"class.std::__uniq_ptr_impl" = type { %"class.std::tuple" }
%"class.std::tuple" = type { %"struct.std::_Tuple_impl" }
%"struct.std::_Tuple_impl" = type { %"struct.std::_Head_base.1" }
%"struct.std::_Head_base.1" = type { ptr }
%"class.std::unique_ptr.2" = type { %"struct.std::__uniq_ptr_data.3" }
%"struct.std::__uniq_ptr_data.3" = type { %"class.std::__uniq_ptr_impl.4" }
%"class.std::__uniq_ptr_impl.4" = type { %"class.std::tuple.5" }
%"class.std::tuple.5" = type { %"struct.std::_Tuple_impl.6" }
%"struct.std::_Tuple_impl.6" = type { %"struct.std::_Head_base.9" }
%"struct.std::_Head_base.9" = type { ptr }
%"class.std::unique_ptr.10" = type { %"struct.std::__uniq_ptr_data.11" }
%"struct.std::__uniq_ptr_data.11" = type { %"class.std::__uniq_ptr_impl.12" }
%"class.std::__uniq_ptr_impl.12" = type { %"class.std::tuple.13" }
%"class.std::tuple.13" = type { %"struct.std::_Tuple_impl.14" }
%"struct.std::_Tuple_impl.14" = type { %"struct.std::_Head_base.17" }
%"struct.std::_Head_base.17" = type { ptr }
%"class.open3d::core::Tensor" = type { %"class.open3d::core::IsDevice", %"class.open3d::core::SizeVector", %"class.open3d::core::SizeVector", ptr, %"class.open3d::core::Dtype", %"class.std::shared_ptr" }
%"class.open3d::core::IsDevice" = type { ptr }
%"class.open3d::core::SizeVector" = type { %"class.open3d::core::SmallVector" }
%"class.open3d::core::SmallVector" = type { %"class.open3d::core::SmallVectorImpl", %"struct.open3d::core::SmallVectorStorage" }
%"class.open3d::core::SmallVectorImpl" = type { %"class.open3d::core::SmallVectorTemplateBase" }
%"class.open3d::core::SmallVectorTemplateBase" = type { %"class.open3d::core::SmallVectorTemplateCommon" }
%"class.open3d::core::SmallVectorTemplateCommon" = type { %"class.open3d::core::SmallVectorBase" }
%"class.open3d::core::SmallVectorBase" = type { ptr, i32, i32 }
%"struct.open3d::core::SmallVectorStorage" = type { [32 x i8] }
%"class.std::shared_ptr" = type { %"class.std::__shared_ptr" }
%"class.std::__shared_ptr" = type { ptr, %"class.std::__shared_count" }
%"class.std::__shared_count" = type { ptr }
%"class.open3d::core::Dtype" = type { i32, i64, [16 x i8] }
%"class.open3d::core::Device" = type { i32, i32 }
%"class.std::tuple.38" = type { %"struct.std::_Tuple_impl.39" }
%"struct.std::_Tuple_impl.39" = type { %"struct.std::_Tuple_impl.40", %"struct.std::_Head_base.44" }
%"struct.std::_Tuple_impl.40" = type { %"struct.std::_Tuple_impl.41", %"struct.std::_Head_base.43" }
%"struct.std::_Tuple_impl.41" = type { %"struct.std::_Head_base.42" }
%"struct.std::_Head_base.42" = type { %"class.open3d::core::Tensor" }
%"struct.std::_Head_base.43" = type { %"class.open3d::core::Tensor" }
%"struct.std::_Head_base.44" = type { %"class.open3d::core::Tensor" }

@.str = private unnamed_addr constant [137 x i8] c"generated/home/dtcxzyw/WorkSpace/Projects/compilers/llvm-opt-benchmark/bench/open3d/Open3D/cpp/open3d/core/nns/NearestNeighborSearch.cpp\00", align 1
@.str.6 = private unnamed_addr constant [18 x i8] c"Index is not set.\00", align 1
@__PRETTY_FUNCTION__._ZN6open3d4core3nns21NearestNeighborSearch17FixedRadiusSearchERKNS0_6TensorEdb = private unnamed_addr constant [125 x i8] c"std::tuple<Tensor, Tensor, Tensor> open3d::core::nns::NearestNeighborSearch::FixedRadiusSearch(const Tensor &, double, bool)\00", align 1

; Function Attrs: mustprogress nounwind ssp uwtable
define linkonce_odr noundef nonnull align 8 dereferenceable(8) ptr @_ZNSt10_Head_baseILm0EPN6open3d4core3nns14NanoFlannIndexELb0EE7_M_headERKS5_(ptr noundef nonnull align 8 dereferenceable(8) %0) #0 comdat align 2 {
  %2 = alloca ptr, align 8
  store ptr %0, ptr %2, align 8, !tbaa !105
  %3 = load ptr, ptr %2, align 8, !tbaa !105
  %4 = getelementptr inbounds nuw %"struct.std::_Head_base.1", ptr %3, i32 0, i32 0
  ret ptr %4
}

; Function Attrs: mustprogress nounwind ssp uwtable
define linkonce_odr noundef nonnull align 8 dereferenceable(8) ptr @_ZNSt10_Head_baseILm0EPN6open3d4core3nns16FixedRadiusIndexELb0EE7_M_headERKS5_(ptr noundef nonnull align 8 dereferenceable(8) %0) #0 comdat align 2 {
  %2 = alloca ptr, align 8
  store ptr %0, ptr %2, align 8, !tbaa !91
  %3 = load ptr, ptr %2, align 8, !tbaa !91
  %4 = getelementptr inbounds nuw %"struct.std::_Head_base.9", ptr %3, i32 0, i32 0
  ret ptr %4
}

; Function Attrs: mustprogress nounwind ssp uwtable
define linkonce_odr noundef nonnull align 8 dereferenceable(8) ptr @_ZNSt11_Tuple_implILm0EJPN6open3d4core3nns14NanoFlannIndexESt14default_deleteIS3_EEE7_M_headERKS7_(ptr noundef nonnull align 8 dereferenceable(8) %0) #0 comdat align 2 {
  %2 = alloca ptr, align 8
  store ptr %0, ptr %2, align 8, !tbaa !103
  %3 = load ptr, ptr %2, align 8, !tbaa !103
  %4 = call noundef nonnull align 8 dereferenceable(8) ptr @_ZNSt10_Head_baseILm0EPN6open3d4core3nns14NanoFlannIndexELb0EE7_M_headERKS5_(ptr noundef nonnull align 8 dereferenceable(8) %3) #18
  ret ptr %4
}

; Function Attrs: mustprogress nounwind ssp uwtable
define linkonce_odr noundef nonnull align 8 dereferenceable(8) ptr @_ZNSt11_Tuple_implILm0EJPN6open3d4core3nns16FixedRadiusIndexESt14default_deleteIS3_EEE7_M_headERKS7_(ptr noundef nonnull align 8 dereferenceable(8) %0) #0 comdat align 2 {
  %2 = alloca ptr, align 8
  store ptr %0, ptr %2, align 8, !tbaa !89
  %3 = load ptr, ptr %2, align 8, !tbaa !89
  %4 = call noundef nonnull align 8 dereferenceable(8) ptr @_ZNSt10_Head_baseILm0EPN6open3d4core3nns16FixedRadiusIndexELb0EE7_M_headERKS5_(ptr noundef nonnull align 8 dereferenceable(8) %3) #18
  ret ptr %4
}

; Function Attrs: mustprogress nounwind ssp uwtable
define linkonce_odr noundef nonnull align 8 dereferenceable(8) ptr @_ZSt12__get_helperILm0EPN6open3d4core3nns14NanoFlannIndexEJSt14default_deleteIS3_EEERKT0_RKSt11_Tuple_implIXT_EJS7_DpT1_EE(ptr noundef nonnull align 8 dereferenceable(8) %0) #0 comdat {
  %2 = alloca ptr, align 8
  store ptr %0, ptr %2, align 8, !tbaa !103
  %3 = load ptr, ptr %2, align 8, !tbaa !103
  %4 = call noundef nonnull align 8 dereferenceable(8) ptr @_ZNSt11_Tuple_implILm0EJPN6open3d4core3nns14NanoFlannIndexESt14default_deleteIS3_EEE7_M_headERKS7_(ptr noundef nonnull align 8 dereferenceable(8) %3) #18
  ret ptr %4
}

; Function Attrs: mustprogress nounwind ssp uwtable
define linkonce_odr noundef nonnull align 8 dereferenceable(8) ptr @_ZSt12__get_helperILm0EPN6open3d4core3nns16FixedRadiusIndexEJSt14default_deleteIS3_EEERKT0_RKSt11_Tuple_implIXT_EJS7_DpT1_EE(ptr noundef nonnull align 8 dereferenceable(8) %0) #0 comdat {
  %2 = alloca ptr, align 8
  store ptr %0, ptr %2, align 8, !tbaa !89
  %3 = load ptr, ptr %2, align 8, !tbaa !89
  %4 = call noundef nonnull align 8 dereferenceable(8) ptr @_ZNSt11_Tuple_implILm0EJPN6open3d4core3nns16FixedRadiusIndexESt14default_deleteIS3_EEE7_M_headERKS7_(ptr noundef nonnull align 8 dereferenceable(8) %3) #18
  ret ptr %4
}

; Function Attrs: mustprogress nounwind ssp uwtable
define linkonce_odr noundef nonnull align 8 dereferenceable(8) ptr @_ZSt3getILm0EJPN6open3d4core3nns14NanoFlannIndexESt14default_deleteIS3_EEERKNSt13tuple_elementIXT_ESt5tupleIJDpT0_EEE4typeERKSB_(ptr noundef nonnull align 8 dereferenceable(8) %0) #0 comdat {
  %2 = alloca ptr, align 8
  store ptr %0, ptr %2, align 8, !tbaa !101
  %3 = load ptr, ptr %2, align 8, !tbaa !101
  %4 = call noundef nonnull align 8 dereferenceable(8) ptr @_ZSt12__get_helperILm0EPN6open3d4core3nns14NanoFlannIndexEJSt14default_deleteIS3_EEERKT0_RKSt11_Tuple_implIXT_EJS7_DpT1_EE(ptr noundef nonnull align 8 dereferenceable(8) %3) #18
  ret ptr %4
}

; Function Attrs: mustprogress nounwind ssp uwtable
define linkonce_odr noundef nonnull align 8 dereferenceable(8) ptr @_ZSt3getILm0EJPN6open3d4core3nns16FixedRadiusIndexESt14default_deleteIS3_EEERKNSt13tuple_elementIXT_ESt5tupleIJDpT0_EEE4typeERKSB_(ptr noundef nonnull align 8 dereferenceable(8) %0) #0 comdat {
  %2 = alloca ptr, align 8
  store ptr %0, ptr %2, align 8, !tbaa !87
  %3 = load ptr, ptr %2, align 8, !tbaa !87
  %4 = call noundef nonnull align 8 dereferenceable(8) ptr @_ZSt12__get_helperILm0EPN6open3d4core3nns16FixedRadiusIndexEJSt14default_deleteIS3_EEERKT0_RKSt11_Tuple_implIXT_EJS7_DpT1_EE(ptr noundef nonnull align 8 dereferenceable(8) %3) #18
  ret ptr %4
}

; Function Attrs: mustprogress nounwind ssp uwtable
define linkonce_odr noundef ptr @_ZNKSt15__uniq_ptr_implIN6open3d4core3nns14NanoFlannIndexESt14default_deleteIS3_EE6_M_ptrEv(ptr noundef nonnull align 8 dereferenceable(8) %0) #0 comdat align 2 {
  %2 = alloca ptr, align 8
  store ptr %0, ptr %2, align 8, !tbaa !97
  %3 = load ptr, ptr %2, align 8
  %4 = getelementptr inbounds nuw %"class.std::__uniq_ptr_impl", ptr %3, i32 0, i32 0
  %5 = call noundef nonnull align 8 dereferenceable(8) ptr @_ZSt3getILm0EJPN6open3d4core3nns14NanoFlannIndexESt14default_deleteIS3_EEERKNSt13tuple_elementIXT_ESt5tupleIJDpT0_EEE4typeERKSB_(ptr noundef nonnull align 8 dereferenceable(8) %4) #18
  %6 = load ptr, ptr %5, align 8, !tbaa !30
  ret ptr %6
}

; Function Attrs: mustprogress nounwind ssp uwtable
define linkonce_odr noundef ptr @_ZNKSt15__uniq_ptr_implIN6open3d4core3nns16FixedRadiusIndexESt14default_deleteIS3_EE6_M_ptrEv(ptr noundef nonnull align 8 dereferenceable(8) %0) #0 comdat align 2 {
  %2 = alloca ptr, align 8
  store ptr %0, ptr %2, align 8, !tbaa !83
  %3 = load ptr, ptr %2, align 8
  %4 = getelementptr inbounds nuw %"class.std::__uniq_ptr_impl.4", ptr %3, i32 0, i32 0
  %5 = call noundef nonnull align 8 dereferenceable(8) ptr @_ZSt3getILm0EJPN6open3d4core3nns16FixedRadiusIndexESt14default_deleteIS3_EEERKNSt13tuple_elementIXT_ESt5tupleIJDpT0_EEE4typeERKSB_(ptr noundef nonnull align 8 dereferenceable(8) %4) #18
  %6 = load ptr, ptr %5, align 8, !tbaa !24
  ret ptr %6
}

; Function Attrs: mustprogress nounwind ssp uwtable
define linkonce_odr noundef ptr @_ZNKSt10unique_ptrIN6open3d4core3nns14NanoFlannIndexESt14default_deleteIS3_EE3getEv(ptr noundef nonnull align 8 dereferenceable(8) %0) #0 comdat align 2 {
  %2 = alloca ptr, align 8
  store ptr %0, ptr %2, align 8, !tbaa !26
  %3 = load ptr, ptr %2, align 8
  %4 = getelementptr inbounds nuw %"class.std::unique_ptr", ptr %3, i32 0, i32 0
  %5 = call noundef ptr @_ZNKSt15__uniq_ptr_implIN6open3d4core3nns14NanoFlannIndexESt14default_deleteIS3_EE6_M_ptrEv(ptr noundef nonnull align 8 dereferenceable(8) %4) #18
  ret ptr %5
}

; Function Attrs: mustprogress nounwind ssp uwtable
define linkonce_odr noundef ptr @_ZNKSt10unique_ptrIN6open3d4core3nns16FixedRadiusIndexESt14default_deleteIS3_EE3getEv(ptr noundef nonnull align 8 dereferenceable(8) %0) #0 comdat align 2 {
  %2 = alloca ptr, align 8
  store ptr %0, ptr %2, align 8, !tbaa !20
  %3 = load ptr, ptr %2, align 8
  %4 = getelementptr inbounds nuw %"class.std::unique_ptr.2", ptr %3, i32 0, i32 0
  %5 = call noundef ptr @_ZNKSt15__uniq_ptr_implIN6open3d4core3nns16FixedRadiusIndexESt14default_deleteIS3_EE6_M_ptrEv(ptr noundef nonnull align 8 dereferenceable(8) %4) #18
  ret ptr %5
}

; Function Attrs: inlinehint mustprogress nounwind ssp uwtable
define linkonce_odr noundef i32 @_ZNK6open3d4core6Device7GetTypeEv(ptr noundef nonnull align 4 dereferenceable(8) %0) #1 comdat align 2 {
  %2 = alloca ptr, align 8
  store ptr %0, ptr %2, align 8, !tbaa !113
  %3 = load ptr, ptr %2, align 8
  %4 = getelementptr inbounds nuw %"class.open3d::core::Device", ptr %3, i32 0, i32 0
  %5 = load i32, ptr %4, align 4, !tbaa !115
  ret i32 %5
}

; Function Attrs: mustprogress nounwind ssp uwtable
define linkonce_odr noundef ptr @_ZNKSt10unique_ptrIN6open3d4core3nns14NanoFlannIndexESt14default_deleteIS3_EEptEv(ptr noundef nonnull align 8 dereferenceable(8) %0) #0 comdat align 2 {
  %2 = alloca ptr, align 8
  store ptr %0, ptr %2, align 8, !tbaa !26
  %3 = load ptr, ptr %2, align 8
  %4 = call noundef ptr @_ZNKSt10unique_ptrIN6open3d4core3nns14NanoFlannIndexESt14default_deleteIS3_EE3getEv(ptr noundef nonnull align 8 dereferenceable(8) %3) #18
  ret ptr %4
}

; Function Attrs: mustprogress nounwind ssp uwtable
define linkonce_odr noundef zeroext i1 @_ZNKSt10unique_ptrIN6open3d4core3nns14NanoFlannIndexESt14default_deleteIS3_EEcvbEv(ptr noundef nonnull align 8 dereferenceable(8) %0) #0 comdat align 2 {
  %2 = alloca ptr, align 8
  store ptr %0, ptr %2, align 8, !tbaa !26
  %3 = load ptr, ptr %2, align 8
  %4 = call noundef ptr @_ZNKSt10unique_ptrIN6open3d4core3nns14NanoFlannIndexESt14default_deleteIS3_EE3getEv(ptr noundef nonnull align 8 dereferenceable(8) %3) #18
  %5 = icmp eq ptr %4, null
  %6 = select i1 %5, i1 false, i1 true
  ret i1 %6
}

; Function Attrs: mustprogress nounwind ssp uwtable
define linkonce_odr noundef ptr @_ZNKSt10unique_ptrIN6open3d4core3nns16FixedRadiusIndexESt14default_deleteIS3_EEptEv(ptr noundef nonnull align 8 dereferenceable(8) %0) #0 comdat align 2 {
  %2 = alloca ptr, align 8
  store ptr %0, ptr %2, align 8, !tbaa !20
  %3 = load ptr, ptr %2, align 8
  %4 = call noundef ptr @_ZNKSt10unique_ptrIN6open3d4core3nns16FixedRadiusIndexESt14default_deleteIS3_EE3getEv(ptr noundef nonnull align 8 dereferenceable(8) %3) #18
  ret ptr %4
}

; Function Attrs: mustprogress nounwind ssp uwtable
define linkonce_odr noundef zeroext i1 @_ZNKSt10unique_ptrIN6open3d4core3nns16FixedRadiusIndexESt14default_deleteIS3_EEcvbEv(ptr noundef nonnull align 8 dereferenceable(8) %0) #0 comdat align 2 {
  %2 = alloca ptr, align 8
  store ptr %0, ptr %2, align 8, !tbaa !20
  %3 = load ptr, ptr %2, align 8
  %4 = call noundef ptr @_ZNKSt10unique_ptrIN6open3d4core3nns16FixedRadiusIndexESt14default_deleteIS3_EE3getEv(ptr noundef nonnull align 8 dereferenceable(8) %3) #18
  %5 = icmp eq ptr %4, null
  %6 = select i1 %5, i1 false, i1 true
  ret i1 %6
}

; Function Attrs: inlinehint mustprogress ssp uwtable
define linkonce_odr noundef zeroext i1 @_ZNK6open3d4core8IsDevice6IsCUDAEv(ptr noundef nonnull align 8 dereferenceable(8) %0) #13 comdat align 2 {
  %2 = alloca ptr, align 8
  %3 = alloca %"class.open3d::core::Device", align 4
  store ptr %0, ptr %2, align 8, !tbaa !36
  %4 = load ptr, ptr %2, align 8
  call void @llvm.lifetime.start.p0(i64 8, ptr %3) #18
  %5 = load ptr, ptr %4, align 8, !tbaa !11
  %6 = getelementptr inbounds ptr, ptr %5, i64 2
  %7 = load ptr, ptr %6, align 8
  %8 = call i64 %7(ptr noundef nonnull align 8 dereferenceable(8) %4)
  store i64 %8, ptr %3, align 4
  %9 = call noundef i32 @_ZNK6open3d4core6Device7GetTypeEv(ptr noundef nonnull align 4 dereferenceable(8) %3)
  %10 = icmp eq i32 %9, 1
  call void @llvm.lifetime.end.p0(i64 8, ptr %3) #18
  ret i1 %10
}

; Function Attrs: mustprogress ssp uwtable
define void @_ZN6open3d4core3nns21NearestNeighborSearch17FixedRadiusSearchERKNS0_6TensorEdb(ptr dead_on_unwind noalias writable sret(%"class.std::tuple.38") align 8 %0, ptr noundef nonnull align 8 dereferenceable(216) %1, ptr noundef nonnull align 8 dereferenceable(160) %2, double noundef %3, i1 noundef zeroext %4) #8 align 2 {
  %6 = alloca ptr, align 8
  %7 = alloca ptr, align 8
  %8 = alloca ptr, align 8
  %9 = alloca double, align 8
  %10 = alloca i8, align 1
  %11 = alloca %"class.open3d::core::Device", align 4
  store ptr %0, ptr %6, align 8
  store ptr %1, ptr %7, align 8, !tbaa !4
  store ptr %2, ptr %8, align 8, !tbaa !9
  store double %3, ptr %9, align 8, !tbaa !145
  %12 = zext i1 %4 to i8
  store i8 %12, ptr %10, align 1, !tbaa !44
  %13 = load ptr, ptr %7, align 8
  %14 = load ptr, ptr %8, align 8, !tbaa !9
  call void @llvm.lifetime.start.p0(i64 8, ptr %11) #18
  %15 = getelementptr inbounds nuw %"class.open3d::core::nns::NearestNeighborSearch", ptr %13, i32 0, i32 3
  %16 = call i64 @_ZNK6open3d4core6Tensor9GetDeviceEv(ptr noundef nonnull align 8 dereferenceable(160) %15)
  store i64 %16, ptr %11, align 4
  call void @_ZN6open3d4core12tensor_check19AssertTensorDevice_EPKciS3_RKNS0_6TensorERKNS0_6DeviceE(ptr noundef @.str, i32 noundef 100, ptr noundef @__PRETTY_FUNCTION__._ZN6open3d4core3nns21NearestNeighborSearch17FixedRadiusSearchERKNS0_6TensorEdb, ptr noundef nonnull align 8 dereferenceable(160) %14, ptr noundef nonnull align 4 dereferenceable(8) %11)
  call void @llvm.lifetime.end.p0(i64 8, ptr %11) #18
  %17 = getelementptr inbounds nuw %"class.open3d::core::nns::NearestNeighborSearch", ptr %13, i32 0, i32 3
  %18 = call noundef zeroext i1 @_ZNK6open3d4core8IsDevice6IsCUDAEv(ptr noundef nonnull align 8 dereferenceable(8) %17)
  br i1 %18, label %19, label %33

19:                                               ; preds = %5
  %20 = getelementptr inbounds nuw %"class.open3d::core::nns::NearestNeighborSearch", ptr %13, i32 0, i32 1
  %21 = call noundef zeroext i1 @_ZNKSt10unique_ptrIN6open3d4core3nns16FixedRadiusIndexESt14default_deleteIS3_EEcvbEv(ptr noundef nonnull align 8 dereferenceable(8) %20) #18
  br i1 %21, label %22, label %32

22:                                               ; preds = %19
  %23 = getelementptr inbounds nuw %"class.open3d::core::nns::NearestNeighborSearch", ptr %13, i32 0, i32 1
  %24 = call noundef ptr @_ZNKSt10unique_ptrIN6open3d4core3nns16FixedRadiusIndexESt14default_deleteIS3_EEptEv(ptr noundef nonnull align 8 dereferenceable(8) %23) #18
  %25 = load ptr, ptr %8, align 8, !tbaa !9
  %26 = load double, ptr %9, align 8, !tbaa !145
  %27 = load i8, ptr %10, align 1, !tbaa !44, !range !143, !noundef !144
  %28 = trunc i8 %27 to i1
  %29 = load ptr, ptr %24, align 8, !tbaa !11
  %30 = getelementptr inbounds ptr, ptr %29, i64 6
  %31 = load ptr, ptr %30, align 8
  call void %31(ptr dead_on_unwind writable sret(%"class.std::tuple.38") align 8 %0, ptr noundef nonnull align 8 dereferenceable(856) %24, ptr noundef nonnull align 8 dereferenceable(160) %25, double noundef %26, i1 noundef zeroext %28)
  br label %45

32:                                               ; preds = %19
  call void @_ZN6open3d7utility6Logger9LogError_IJEEEvPKciS4_S4_DpOT_(ptr noundef @.str, i32 noundef 107, ptr noundef @__PRETTY_FUNCTION__._ZN6open3d4core3nns21NearestNeighborSearch17FixedRadiusSearchERKNS0_6TensorEdb, ptr noundef @.str.6) #22
  unreachable

33:                                               ; preds = %5
  %34 = getelementptr inbounds nuw %"class.open3d::core::nns::NearestNeighborSearch", ptr %13, i32 0, i32 0
  %35 = call noundef zeroext i1 @_ZNKSt10unique_ptrIN6open3d4core3nns14NanoFlannIndexESt14default_deleteIS3_EEcvbEv(ptr noundef nonnull align 8 dereferenceable(8) %34) #18
  br i1 %35, label %36, label %44

36:                                               ; preds = %33
  %37 = getelementptr inbounds nuw %"class.open3d::core::nns::NearestNeighborSearch", ptr %13, i32 0, i32 0
  %38 = call noundef ptr @_ZNKSt10unique_ptrIN6open3d4core3nns14NanoFlannIndexESt14default_deleteIS3_EEptEv(ptr noundef nonnull align 8 dereferenceable(8) %37) #18
  %39 = load ptr, ptr %8, align 8, !tbaa !9
  %40 = load double, ptr %9, align 8, !tbaa !145
  %41 = load ptr, ptr %38, align 8, !tbaa !11
  %42 = getelementptr inbounds ptr, ptr %41, i64 6
  %43 = load ptr, ptr %42, align 8
  call void %43(ptr dead_on_unwind writable sret(%"class.std::tuple.38") align 8 %0, ptr noundef nonnull align 8 dereferenceable(208) %38, ptr noundef nonnull align 8 dereferenceable(160) %39, double noundef %40, i1 noundef zeroext true)
  br label %45

44:                                               ; preds = %33
  call void @_ZN6open3d7utility6Logger9LogError_IJEEEvPKciS4_S4_DpOT_(ptr noundef @.str, i32 noundef 113, ptr noundef @__PRETTY_FUNCTION__._ZN6open3d4core3nns21NearestNeighborSearch17FixedRadiusSearchERKNS0_6TensorEdb, ptr noundef @.str.6) #22
  unreachable

45:                                               ; preds = %36, %22
  ret void
}